(iBody
Body
p0
(dp1
S'body'
p2
(dp3
S'crossbone'
p4
(dp5
S'R'
p6
(dp7
S'inside'
p8
(I385
I538
tp9
sS'outside'
p10
(I421
I537
tp11
ssS'L'
p12
(dp13
g8
(I234
I535
tp14
sg10
(I220
I533
tp15
sssS'hand'
p16
(dp17
g6
(I480
I355
tp18
sg12
(I184
I347
tp19
ssS'feet'
p20
(dp21
g6
(I438
I637
tp22
sg12
(I195
I633
tp23
ssS'elbow'
p24
(dp25
g6
(dp26
g8
(I412
I242
tp27
sg10
(I418
I222
tp28
ssg12
(dp29
g8
(I242
I232
tp30
sg10
(I225
I216
tp31
sssS'loin'
p32
(dp33
g6
(I387
I327
tp34
sg12
(I252
I327
tp35
ssS'wrist'
p36
(dp37
g6
(dp38
g8
(I458
I326
tp39
sg10
(I466
I321
tp40
ssg12
(dp41
g8
(I204
I317
tp42
sg10
(I188
I313
tp43
sssS'sholder'
p44
(dp45
g6
(I401
I157
tp46
sg12
(I242
I151
tp47
ssS'knee'
p48
(dp49
g6
(dp50
g8
(I374
I495
tp51
sg10
(I412
I481
tp52
ssg12
(dp53
g8
(I265
I493
tp54
sg10
(I228
I479
tp55
sssS'ear'
p56
(dp57
g6
(I360
I51
tp58
sg12
(I288
I33
tp59
ssS'neck'
p60
(dp61
S'UL'
p62
(I302
I102
tp63
sS'DL'
p64
(I293
I119
tp65
sS'DR'
p66
(I353
I119
tp67
sS'UR'
p68
(I342
I102
tp69
ssS'waist'
p70
(dp71
g6
(I361
I267
tp72
sg12
(I279
I267
tp73
ssS'forhead'
p74
(dp75
g6
(I348
I24
tp76
sg12
(I293
I24
tp77
ssS'armpit'
p78
(dp79
g6
(I379
I186
tp80
sg12
(I262
I175
tp81
ssS'ankle'
p82
(dp83
g6
(dp84
g8
(I401
I600
tp85
sg10
(I433
I597
tp86
ssg12
(dp87
g8
(I201
I597
tp88
sg10
(I203
I593
tp89
sssS'head_top'
p90
(I321
I12
tp91
sS'wing'
p92
(dp93
g6
(I376
I129
tp94
sg12
(I267
I127
tp95
ssS'groin'
p96
(dp97
g6
(I333
I355
tp98
sg12
(I305
I355
tp99
sssS'widths'
p100
(dp101
g70
I82
sg32
F135.0
sg44
F159.11316727411344
sg78
F117.51595636338071
sg96
I28
sg60
F50.0
ssS'vectors'
p102
(dp103
S'right_hand'
p104
(lp105
I90
aI198
asS'left_leg'
p106
(lp107
I-110
aI278
asS'left_hand'
p108
(lp109
I-68
aI196
asS'right_leg'
p110
(lp111
I105
aI282
assS'lenghts'
p112
(dp113
g60
I17
sS'corpse'
p114
F148.0
sS'hand_R'
p115
F196.88067452139634
sS'hand_L'
p116
F188.85973631242842
sg32
F28.0
sS'legs'
p117
F280.0
sg70
F60.0
ssS'angles'
p118
(dp119
g110
(lp120
F0.35643695222019645
aF0.34893735911823875
aF0.9371460502032697
asg106
(lp121
F-0.37677968629029945
aF-0.3679279598253301
aF0.9298542984676524
asg104
(lp122
F0.5386773417543919
aF0.5130010868030811
aF0.8583879571259475
asg32
(lp123
F0.0
aF0.0
aF1.0
asg44
(lp124
F0.03771795246686421
aF0.03770900990025203
aF0.9992887623566786
asg78
(lp125
F0.09374154154424845
aF0.09360430992014394
aF0.995609478241531
asg108
(lp126
F-0.42575106916196787
aF-0.4130049184806947
aF0.910728794598455
assS'brinks'
p127
(dp128
S'face_brink'
p129
(dp130
g6
(lp131
(I361
I51
tp132
a(I360
I52
tp133
a(I360
I53
tp134
a(I359
I54
tp135
a(I359
I55
tp136
a(I353
I56
tp137
a(I352
I57
tp138
a(I352
I58
tp139
a(I352
I59
tp140
a(I353
I60
tp141
a(I353
I61
tp142
a(I354
I62
tp143
a(I355
I63
tp144
a(I355
I64
tp145
a(I355
I65
tp146
a(I356
I66
tp147
a(I357
I67
tp148
a(I354
I68
tp149
a(I354
I69
tp150
a(I354
I70
tp151
a(I354
I71
tp152
a(I354
I72
tp153
a(I354
I73
tp154
a(I354
I74
tp155
a(I354
I75
tp156
a(I354
I76
tp157
a(I354
I77
tp158
a(I353
I78
tp159
a(I353
I79
tp160
a(I352
I80
tp161
a(I352
I81
tp162
a(I351
I82
tp163
a(I351
I83
tp164
a(I350
I84
tp165
a(I349
I85
tp166
a(I348
I86
tp167
a(I348
I87
tp168
a(I348
I88
tp169
a(I348
I89
tp170
a(I347
I90
tp171
a(I347
I91
tp172
a(I346
I92
tp173
a(I345
I93
tp174
a(I344
I94
tp175
a(I344
I95
tp176
a(I344
I96
tp177
a(I344
I97
tp178
a(I343
I98
tp179
a(I343
I99
tp180
a(I343
I100
tp181
a(I343
I101
tp182
asg12
(lp183
(I289
I33
tp184
a(I289
I34
tp185
a(I290
I35
tp186
a(I290
I36
tp187
a(I290
I37
tp188
a(I290
I38
tp189
a(I290
I39
tp190
a(I290
I40
tp191
a(I290
I41
tp192
a(I290
I42
tp193
a(I290
I43
tp194
a(I290
I44
tp195
a(I291
I45
tp196
a(I291
I46
tp197
a(I291
I47
tp198
a(I292
I48
tp199
a(I293
I49
tp200
a(I293
I50
tp201
a(I294
I51
tp202
a(I294
I52
tp203
a(I294
I53
tp204
a(I294
I54
tp205
a(I294
I55
tp206
a(I293
I56
tp207
a(I293
I57
tp208
a(I292
I58
tp209
a(I292
I59
tp210
a(I292
I60
tp211
a(I292
I61
tp212
a(I292
I62
tp213
a(I292
I63
tp214
a(I292
I64
tp215
a(I292
I65
tp216
a(I292
I66
tp217
a(I292
I67
tp218
a(I292
I68
tp219
a(I292
I69
tp220
a(I292
I70
tp221
a(I291
I71
tp222
a(I291
I72
tp223
a(I291
I73
tp224
a(I291
I74
tp225
a(I291
I75
tp226
a(I291
I76
tp227
a(I291
I77
tp228
a(I292
I78
tp229
a(I292
I79
tp230
a(I292
I80
tp231
a(I293
I81
tp232
a(I293
I82
tp233
a(I294
I83
tp234
a(I294
I84
tp235
a(I295
I85
tp236
a(I295
I86
tp237
a(I296
I87
tp238
a(I296
I88
tp239
a(I296
I89
tp240
a(I296
I90
tp241
a(I297
I91
tp242
a(I297
I92
tp243
a(I298
I93
tp244
a(I299
I94
tp245
a(I300
I95
tp246
a(I300
I96
tp247
a(I301
I97
tp248
a(I301
I98
tp249
a(I301
I99
tp250
a(I301
I100
tp251
a(I302
I101
tp252
assS'groin_brink'
p253
(lp254
(I314
I361
tp255
a(I315
I361
tp256
a(I316
I359
tp257
a(I317
I357
tp258
a(I318
I356
tp259
a(I319
I355
tp260
a(I320
I355
tp261
a(I321
I357
tp262
a(I322
I358
tp263
a(I323
I359
tp264
a(I324
I361
tp265
a(I325
I362
tp266
a(I326
I363
tp267
a(I327
I364
tp268
a(I328
I365
tp269
a(I329
I367
tp270
a(I330
I369
tp271
a(I331
I371
tp272
a(I332
I373
tp273
asS'legs_brink'
p274
(dp275
g6
(dp276
g10
(lp277
(I387
I327
tp278
a(I387
I328
tp279
a(I388
I329
tp280
a(I388
I330
tp281
a(I389
I331
tp282
a(I389
I332
tp283
a(I389
I333
tp284
a(I389
I334
tp285
a(I390
I335
tp286
a(I390
I336
tp287
a(I390
I337
tp288
a(I390
I338
tp289
a(I391
I339
tp290
a(I391
I340
tp291
a(I391
I341
tp292
a(I391
I342
tp293
a(I392
I343
tp294
a(I392
I344
tp295
a(I392
I345
tp296
a(I392
I346
tp297
a(I393
I347
tp298
a(I393
I348
tp299
a(I393
I349
tp300
a(I393
I350
tp301
a(I393
I351
tp302
a(I393
I352
tp303
a(I394
I353
tp304
a(I394
I354
tp305
a(I394
I355
tp306
a(I394
I356
tp307
a(I394
I357
tp308
a(I394
I358
tp309
a(I395
I359
tp310
a(I395
I360
tp311
a(I395
I361
tp312
a(I395
I362
tp313
a(I395
I363
tp314
a(I395
I364
tp315
a(I395
I365
tp316
a(I395
I366
tp317
a(I396
I367
tp318
a(I396
I368
tp319
a(I396
I369
tp320
a(I396
I370
tp321
a(I397
I371
tp322
a(I397
I372
tp323
a(I397
I373
tp324
a(I397
I374
tp325
a(I397
I375
tp326
a(I397
I376
tp327
a(I398
I377
tp328
a(I398
I378
tp329
a(I398
I379
tp330
a(I398
I380
tp331
a(I399
I381
tp332
a(I399
I382
tp333
a(I399
I383
tp334
a(I399
I384
tp335
a(I399
I385
tp336
a(I399
I386
tp337
a(I400
I387
tp338
a(I400
I388
tp339
a(I400
I389
tp340
a(I400
I390
tp341
a(I400
I391
tp342
a(I400
I392
tp343
a(I401
I393
tp344
a(I401
I394
tp345
a(I401
I395
tp346
a(I401
I396
tp347
a(I401
I397
tp348
a(I401
I398
tp349
a(I402
I399
tp350
a(I402
I400
tp351
a(I402
I401
tp352
a(I402
I402
tp353
a(I402
I403
tp354
a(I401
I404
tp355
a(I401
I405
tp356
a(I401
I406
tp357
a(I401
I407
tp358
a(I401
I408
tp359
a(I401
I409
tp360
a(I401
I410
tp361
a(I402
I411
tp362
a(I402
I412
tp363
a(I402
I413
tp364
a(I402
I414
tp365
a(I403
I415
tp366
a(I403
I416
tp367
a(I403
I417
tp368
a(I403
I418
tp369
a(I403
I419
tp370
a(I403
I420
tp371
a(I403
I421
tp372
a(I403
I422
tp373
a(I404
I423
tp374
a(I404
I424
tp375
a(I404
I425
tp376
a(I404
I426
tp377
a(I404
I427
tp378
a(I404
I428
tp379
a(I404
I429
tp380
a(I404
I430
tp381
a(I404
I431
tp382
a(I404
I432
tp383
a(I404
I433
tp384
a(I404
I434
tp385
a(I404
I435
tp386
a(I404
I436
tp387
a(I404
I437
tp388
a(I404
I438
tp389
a(I404
I439
tp390
a(I404
I440
tp391
a(I404
I441
tp392
a(I404
I442
tp393
a(I404
I443
tp394
a(I403
I444
tp395
a(I403
I445
tp396
a(I403
I446
tp397
a(I403
I447
tp398
a(I403
I448
tp399
a(I403
I449
tp400
a(I403
I450
tp401
a(I403
I451
tp402
a(I403
I452
tp403
a(I404
I453
tp404
a(I404
I454
tp405
a(I404
I455
tp406
a(I404
I456
tp407
a(I405
I457
tp408
a(I405
I458
tp409
a(I405
I459
tp410
a(I405
I460
tp411
a(I406
I461
tp412
a(I406
I462
tp413
a(I406
I463
tp414
a(I406
I464
tp415
a(I406
I465
tp416
a(I406
I466
tp417
a(I407
I467
tp418
a(I407
I468
tp419
a(I407
I469
tp420
a(I407
I470
tp421
a(I408
I471
tp422
a(I408
I472
tp423
a(I409
I473
tp424
a(I409
I474
tp425
a(I409
I475
tp426
a(I409
I476
tp427
a(I410
I477
tp428
a(I410
I478
tp429
a(I411
I479
tp430
a(I411
I480
tp431
ag52
a(I412
I482
tp432
a(I412
I483
tp433
a(I412
I484
tp434
a(I413
I485
tp435
a(I413
I486
tp436
a(I414
I487
tp437
a(I414
I488
tp438
a(I415
I489
tp439
a(I415
I490
tp440
a(I416
I491
tp441
a(I416
I492
tp442
a(I417
I493
tp443
a(I417
I494
tp444
a(I417
I495
tp445
a(I417
I496
tp446
a(I418
I497
tp447
a(I418
I498
tp448
a(I418
I499
tp449
a(I418
I500
tp450
a(I419
I501
tp451
a(I419
I502
tp452
a(I419
I503
tp453
a(I419
I504
tp454
a(I419
I505
tp455
a(I419
I506
tp456
a(I420
I507
tp457
a(I420
I508
tp458
a(I421
I509
tp459
a(I421
I510
tp460
a(I421
I511
tp461
a(I421
I512
tp462
a(I422
I513
tp463
a(I422
I514
tp464
a(I422
I515
tp465
a(I422
I516
tp466
a(I422
I517
tp467
a(I422
I518
tp468
a(I422
I519
tp469
a(I422
I520
tp470
a(I422
I521
tp471
a(I422
I522
tp472
a(I422
I523
tp473
a(I422
I524
tp474
a(I422
I525
tp475
a(I422
I526
tp476
a(I422
I527
tp477
a(I422
I528
tp478
a(I422
I529
tp479
a(I422
I530
tp480
a(I422
I531
tp481
a(I421
I532
tp482
a(I421
I533
tp483
a(I421
I534
tp484
a(I421
I535
tp485
a(I421
I536
tp486
ag11
a(I421
I538
tp487
a(I422
I539
tp488
a(I422
I540
tp489
a(I422
I541
tp490
a(I421
I542
tp491
a(I421
I543
tp492
a(I421
I544
tp493
a(I421
I545
tp494
a(I421
I546
tp495
a(I421
I547
tp496
a(I421
I548
tp497
a(I421
I549
tp498
a(I421
I550
tp499
a(I422
I551
tp500
a(I422
I552
tp501
a(I422
I553
tp502
a(I422
I554
tp503
a(I423
I555
tp504
a(I423
I556
tp505
a(I424
I557
tp506
a(I424
I558
tp507
a(I425
I559
tp508
a(I425
I560
tp509
a(I425
I561
tp510
a(I424
I562
tp511
a(I424
I563
tp512
a(I424
I564
tp513
a(I424
I565
tp514
a(I424
I566
tp515
a(I424
I567
tp516
a(I424
I568
tp517
a(I425
I569
tp518
a(I425
I570
tp519
a(I426
I571
tp520
a(I426
I572
tp521
a(I427
I573
tp522
a(I427
I574
tp523
a(I427
I575
tp524
a(I426
I576
tp525
a(I426
I577
tp526
a(I426
I578
tp527
a(I427
I579
tp528
a(I427
I580
tp529
a(I428
I581
tp530
a(I428
I582
tp531
a(I428
I583
tp532
a(I428
I584
tp533
a(I429
I585
tp534
a(I429
I586
tp535
a(I430
I587
tp536
a(I430
I588
tp537
a(I430
I589
tp538
a(I430
I590
tp539
a(I431
I591
tp540
a(I431
I592
tp541
a(I431
I593
tp542
a(I431
I594
tp543
a(I432
I595
tp544
a(I432
I596
tp545
ag86
a(I434
I598
tp546
a(I435
I599
tp547
a(I435
I600
tp548
a(I436
I601
tp549
a(I436
I602
tp550
a(I437
I603
tp551
a(I437
I604
tp552
a(I438
I605
tp553
a(I438
I606
tp554
a(I439
I607
tp555
a(I440
I608
tp556
a(I441
I609
tp557
a(I442
I610
tp558
a(I443
I611
tp559
a(I444
I612
tp560
a(I445
I613
tp561
a(I446
I614
tp562
a(I447
I615
tp563
a(I448
I616
tp564
a(I449
I617
tp565
a(I449
I618
tp566
a(I450
I619
tp567
a(I450
I620
tp568
a(I451
I621
tp569
a(I451
I622
tp570
a(I452
I623
tp571
a(I452
I624
tp572
a(I452
I625
tp573
a(I452
I626
tp574
a(I452
I627
tp575
a(I452
I628
tp576
a(I452
I629
tp577
a(I452
I630
tp578
a(I453
I631
tp579
a(I454
I632
tp580
a(I455
I633
tp581
a(I455
I634
tp582
a(I455
I635
tp583
a(I455
I636
tp584
asg8
(lp585
(I333
I355
tp586
a(I333
I356
tp587
a(I333
I357
tp588
a(I334
I358
tp589
a(I324
I359
tp590
a(I324
I360
tp591
a(I325
I361
tp592
a(I326
I362
tp593
a(I327
I363
tp594
a(I328
I364
tp595
a(I329
I365
tp596
a(I329
I366
tp597
a(I330
I367
tp598
a(I330
I368
tp599
a(I331
I369
tp600
a(I331
I370
tp601
a(I332
I371
tp602
a(I332
I372
tp603
a(I333
I373
tp604
a(I333
I374
tp605
a(I334
I375
tp606
a(I334
I376
tp607
a(I335
I377
tp608
a(I335
I378
tp609
a(I336
I379
tp610
a(I336
I380
tp611
a(I337
I381
tp612
a(I337
I382
tp613
a(I338
I383
tp614
a(I338
I384
tp615
a(I339
I385
tp616
a(I339
I386
tp617
a(I339
I387
tp618
a(I339
I388
tp619
a(I340
I389
tp620
a(I340
I390
tp621
a(I341
I391
tp622
a(I341
I392
tp623
a(I342
I393
tp624
a(I342
I394
tp625
a(I343
I395
tp626
a(I343
I396
tp627
a(I344
I397
tp628
a(I344
I398
tp629
a(I344
I399
tp630
a(I344
I400
tp631
a(I345
I401
tp632
a(I345
I402
tp633
a(I346
I403
tp634
a(I346
I404
tp635
a(I346
I405
tp636
a(I346
I406
tp637
a(I346
I407
tp638
a(I346
I408
tp639
a(I346
I409
tp640
a(I346
I410
tp641
a(I346
I411
tp642
a(I346
I412
tp643
a(I347
I413
tp644
a(I347
I414
tp645
a(I347
I415
tp646
a(I347
I416
tp647
a(I348
I417
tp648
a(I348
I418
tp649
a(I349
I419
tp650
a(I349
I420
tp651
a(I350
I421
tp652
a(I350
I422
tp653
a(I350
I423
tp654
a(I350
I424
tp655
a(I351
I425
tp656
a(I351
I426
tp657
a(I352
I427
tp658
a(I352
I428
tp659
a(I353
I429
tp660
a(I353
I430
tp661
a(I354
I431
tp662
a(I354
I432
tp663
a(I354
I433
tp664
a(I354
I434
tp665
a(I355
I435
tp666
a(I355
I436
tp667
a(I356
I437
tp668
a(I356
I438
tp669
a(I356
I439
tp670
a(I356
I440
tp671
a(I357
I441
tp672
a(I357
I442
tp673
a(I357
I443
tp674
a(I357
I444
tp675
a(I358
I445
tp676
a(I358
I446
tp677
a(I359
I447
tp678
a(I359
I448
tp679
a(I359
I449
tp680
a(I359
I450
tp681
a(I360
I451
tp682
a(I360
I452
tp683
a(I361
I453
tp684
a(I361
I454
tp685
a(I361
I455
tp686
a(I361
I456
tp687
a(I362
I457
tp688
a(I362
I458
tp689
a(I363
I459
tp690
a(I363
I460
tp691
a(I363
I461
tp692
a(I363
I462
tp693
a(I364
I463
tp694
a(I364
I464
tp695
a(I364
I465
tp696
a(I364
I466
tp697
a(I364
I467
tp698
a(I364
I468
tp699
a(I364
I469
tp700
a(I364
I470
tp701
a(I364
I471
tp702
a(I364
I472
tp703
a(I365
I473
tp704
a(I365
I474
tp705
a(I366
I475
tp706
a(I367
I476
tp707
a(I368
I477
tp708
a(I369
I478
tp709
a(I370
I479
tp710
a(I370
I480
tp711
a(I371
I481
tp712
a(I371
I482
tp713
a(I372
I483
tp714
a(I372
I484
tp715
a(I372
I485
tp716
a(I372
I486
tp717
a(I372
I487
tp718
a(I372
I488
tp719
a(I372
I489
tp720
a(I372
I490
tp721
a(I372
I491
tp722
a(I372
I492
tp723
a(I373
I493
tp724
a(I373
I494
tp725
ag51
a(I374
I496
tp726
a(I375
I497
tp727
a(I375
I498
tp728
a(I375
I499
tp729
a(I375
I500
tp730
a(I375
I501
tp731
a(I375
I502
tp732
a(I375
I503
tp733
a(I375
I504
tp734
a(I375
I505
tp735
a(I375
I506
tp736
a(I375
I507
tp737
a(I375
I508
tp738
a(I375
I509
tp739
a(I375
I510
tp740
a(I375
I511
tp741
a(I375
I512
tp742
a(I376
I513
tp743
a(I376
I514
tp744
a(I377
I515
tp745
a(I377
I516
tp746
a(I378
I517
tp747
a(I378
I518
tp748
a(I379
I519
tp749
a(I379
I520
tp750
a(I380
I521
tp751
a(I380
I522
tp752
a(I380
I523
tp753
a(I380
I524
tp754
a(I381
I525
tp755
a(I381
I526
tp756
a(I382
I527
tp757
a(I382
I528
tp758
a(I382
I529
tp759
a(I382
I530
tp760
a(I383
I531
tp761
a(I383
I532
tp762
a(I384
I533
tp763
a(I384
I534
tp764
a(I384
I535
tp765
a(I384
I536
tp766
a(I385
I537
tp767
ag9
a(I386
I539
tp768
a(I386
I540
tp769
a(I386
I541
tp770
a(I386
I542
tp771
a(I387
I543
tp772
a(I387
I544
tp773
a(I388
I545
tp774
a(I388
I546
tp775
a(I389
I547
tp776
a(I389
I548
tp777
a(I390
I549
tp778
a(I390
I550
tp779
a(I391
I551
tp780
a(I391
I552
tp781
a(I392
I553
tp782
a(I392
I554
tp783
a(I392
I555
tp784
a(I393
I556
tp785
a(I394
I557
tp786
a(I394
I558
tp787
a(I394
I559
tp788
a(I394
I560
tp789
a(I395
I561
tp790
a(I395
I562
tp791
a(I396
I563
tp792
a(I396
I564
tp793
a(I396
I565
tp794
a(I396
I566
tp795
a(I397
I567
tp796
a(I397
I568
tp797
a(I397
I569
tp798
a(I397
I570
tp799
a(I397
I571
tp800
a(I397
I572
tp801
a(I398
I573
tp802
a(I398
I574
tp803
a(I399
I575
tp804
a(I399
I576
tp805
a(I399
I577
tp806
a(I399
I578
tp807
a(I400
I579
tp808
a(I400
I580
tp809
a(I400
I581
tp810
a(I400
I582
tp811
a(I401
I583
tp812
a(I401
I584
tp813
a(I401
I585
tp814
a(I401
I586
tp815
a(I401
I587
tp816
a(I401
I588
tp817
a(I401
I589
tp818
a(I401
I590
tp819
a(I402
I591
tp820
a(I402
I592
tp821
a(I403
I593
tp822
a(I403
I594
tp823
a(I403
I595
tp824
a(I402
I596
tp825
a(I402
I597
tp826
a(I401
I598
tp827
a(I401
I599
tp828
ag85
a(I401
I601
tp829
a(I401
I602
tp830
a(I401
I603
tp831
a(I401
I604
tp832
a(I401
I605
tp833
a(I401
I606
tp834
a(I402
I607
tp835
a(I402
I608
tp836
a(I403
I609
tp837
a(I404
I610
tp838
a(I405
I611
tp839
a(I405
I612
tp840
a(I406
I613
tp841
a(I407
I614
tp842
a(I409
I615
tp843
a(I410
I616
tp844
a(I411
I617
tp845
a(I411
I618
tp846
a(I412
I619
tp847
a(I413
I620
tp848
a(I414
I621
tp849
a(I414
I622
tp850
a(I415
I623
tp851
a(I415
I624
tp852
a(I416
I625
tp853
a(I416
I626
tp854
a(I417
I627
tp855
a(I417
I628
tp856
a(I418
I629
tp857
a(I418
I630
tp858
a(I419
I631
tp859
a(I420
I632
tp860
a(I421
I633
tp861
a(I422
I634
tp862
a(I423
I635
tp863
a(I424
I636
tp864
assg12
(dp865
g10
(lp866
(I253
I327
tp867
a(I252
I328
tp868
a(I252
I329
tp869
a(I251
I330
tp870
a(I251
I331
tp871
a(I251
I332
tp872
a(I251
I333
tp873
a(I250
I334
tp874
a(I250
I335
tp875
a(I250
I336
tp876
a(I250
I337
tp877
a(I249
I338
tp878
a(I249
I339
tp879
a(I249
I340
tp880
a(I249
I341
tp881
a(I248
I342
tp882
a(I248
I343
tp883
a(I248
I344
tp884
a(I248
I345
tp885
a(I247
I346
tp886
a(I247
I347
tp887
a(I247
I348
tp888
a(I247
I349
tp889
a(I247
I350
tp890
a(I247
I351
tp891
a(I247
I352
tp892
a(I247
I353
tp893
a(I246
I354
tp894
a(I246
I355
tp895
a(I246
I356
tp896
a(I246
I357
tp897
a(I246
I358
tp898
a(I246
I359
tp899
a(I246
I360
tp900
a(I246
I361
tp901
a(I245
I362
tp902
a(I245
I363
tp903
a(I245
I364
tp904
a(I245
I365
tp905
a(I244
I366
tp906
a(I244
I367
tp907
a(I243
I368
tp908
a(I243
I369
tp909
a(I243
I370
tp910
a(I243
I371
tp911
a(I242
I372
tp912
a(I242
I373
tp913
a(I242
I374
tp914
a(I242
I375
tp915
a(I241
I376
tp916
a(I241
I377
tp917
a(I241
I378
tp918
a(I241
I379
tp919
a(I240
I380
tp920
a(I240
I381
tp921
a(I240
I382
tp922
a(I240
I383
tp923
a(I239
I384
tp924
a(I239
I385
tp925
a(I239
I386
tp926
a(I239
I387
tp927
a(I239
I388
tp928
a(I239
I389
tp929
a(I239
I390
tp930
a(I239
I391
tp931
a(I239
I392
tp932
a(I239
I393
tp933
a(I239
I394
tp934
a(I239
I395
tp935
a(I238
I396
tp936
a(I238
I397
tp937
a(I238
I398
tp938
a(I238
I399
tp939
a(I237
I400
tp940
a(I237
I401
tp941
a(I237
I402
tp942
a(I237
I403
tp943
a(I237
I404
tp944
a(I238
I405
tp945
a(I238
I406
tp946
a(I238
I407
tp947
a(I238
I408
tp948
a(I238
I409
tp949
a(I238
I410
tp950
a(I238
I411
tp951
a(I237
I412
tp952
a(I237
I413
tp953
a(I237
I414
tp954
a(I237
I415
tp955
a(I237
I416
tp956
a(I237
I417
tp957
a(I237
I418
tp958
a(I237
I419
tp959
a(I237
I420
tp960
a(I237
I421
tp961
a(I237
I422
tp962
a(I237
I423
tp963
a(I237
I424
tp964
a(I237
I425
tp965
a(I237
I426
tp966
a(I238
I427
tp967
a(I238
I428
tp968
a(I238
I429
tp969
a(I238
I430
tp970
a(I238
I431
tp971
a(I238
I432
tp972
a(I238
I433
tp973
a(I237
I434
tp974
a(I237
I435
tp975
a(I236
I436
tp976
a(I236
I437
tp977
a(I236
I438
tp978
a(I236
I439
tp979
a(I235
I440
tp980
a(I235
I441
tp981
a(I234
I442
tp982
a(I234
I443
tp983
a(I234
I444
tp984
a(I234
I445
tp985
a(I234
I446
tp986
a(I234
I447
tp987
a(I234
I448
tp988
a(I234
I449
tp989
a(I234
I450
tp990
a(I234
I451
tp991
a(I234
I452
tp992
a(I234
I453
tp993
a(I234
I454
tp994
a(I234
I455
tp995
a(I233
I456
tp996
a(I233
I457
tp997
a(I233
I458
tp998
a(I233
I459
tp999
a(I232
I460
tp1000
a(I232
I461
tp1001
a(I232
I462
tp1002
a(I233
I463
tp1003
a(I233
I464
tp1004
a(I233
I465
tp1005
a(I233
I466
tp1006
a(I233
I467
tp1007
a(I232
I468
tp1008
a(I232
I469
tp1009
a(I231
I470
tp1010
a(I231
I471
tp1011
a(I230
I472
tp1012
a(I230
I473
tp1013
a(I230
I474
tp1014
a(I230
I475
tp1015
a(I229
I476
tp1016
a(I229
I477
tp1017
a(I228
I478
tp1018
ag55
a(I227
I480
tp1019
a(I227
I481
tp1020
a(I226
I482
tp1021
a(I226
I483
tp1022
a(I225
I484
tp1023
a(I225
I485
tp1024
a(I224
I486
tp1025
a(I224
I487
tp1026
a(I223
I488
tp1027
a(I223
I489
tp1028
a(I223
I490
tp1029
a(I223
I491
tp1030
a(I222
I492
tp1031
a(I222
I493
tp1032
a(I222
I494
tp1033
a(I222
I495
tp1034
a(I221
I496
tp1035
a(I221
I497
tp1036
a(I221
I498
tp1037
a(I221
I499
tp1038
a(I221
I500
tp1039
a(I221
I501
tp1040
a(I221
I502
tp1041
a(I221
I503
tp1042
a(I221
I504
tp1043
a(I221
I505
tp1044
a(I221
I506
tp1045
a(I221
I507
tp1046
a(I221
I508
tp1047
a(I221
I509
tp1048
a(I221
I510
tp1049
a(I221
I511
tp1050
a(I221
I512
tp1051
a(I221
I513
tp1052
a(I221
I514
tp1053
a(I221
I515
tp1054
a(I221
I516
tp1055
a(I221
I517
tp1056
a(I221
I518
tp1057
a(I221
I519
tp1058
a(I221
I520
tp1059
a(I221
I521
tp1060
a(I221
I522
tp1061
a(I221
I523
tp1062
a(I221
I524
tp1063
a(I221
I525
tp1064
a(I221
I526
tp1065
a(I221
I527
tp1066
a(I221
I528
tp1067
a(I221
I529
tp1068
a(I221
I530
tp1069
a(I221
I531
tp1070
a(I220
I532
tp1071
ag15
a(I220
I534
tp1072
a(I220
I535
tp1073
a(I219
I536
tp1074
a(I219
I537
tp1075
a(I219
I538
tp1076
a(I219
I539
tp1077
a(I219
I540
tp1078
a(I219
I541
tp1079
a(I219
I542
tp1080
a(I219
I543
tp1081
a(I219
I544
tp1082
a(I219
I545
tp1083
a(I218
I546
tp1084
a(I218
I547
tp1085
a(I217
I548
tp1086
a(I217
I549
tp1087
a(I217
I550
tp1088
a(I217
I551
tp1089
a(I217
I552
tp1090
a(I217
I553
tp1091
a(I217
I554
tp1092
a(I217
I555
tp1093
a(I216
I556
tp1094
a(I216
I557
tp1095
a(I215
I558
tp1096
a(I215
I559
tp1097
a(I215
I560
tp1098
a(I215
I561
tp1099
a(I214
I562
tp1100
a(I214
I563
tp1101
a(I214
I564
tp1102
a(I215
I565
tp1103
a(I215
I566
tp1104
a(I215
I567
tp1105
a(I215
I568
tp1106
a(I215
I569
tp1107
a(I215
I570
tp1108
a(I215
I571
tp1109
a(I214
I572
tp1110
a(I214
I573
tp1111
a(I213
I574
tp1112
a(I213
I575
tp1113
a(I212
I576
tp1114
a(I212
I577
tp1115
a(I211
I578
tp1116
a(I211
I579
tp1117
a(I210
I580
tp1118
a(I210
I581
tp1119
a(I210
I582
tp1120
a(I210
I583
tp1121
a(I209
I584
tp1122
a(I208
I585
tp1123
a(I207
I586
tp1124
a(I207
I587
tp1125
a(I206
I588
tp1126
a(I206
I589
tp1127
a(I205
I590
tp1128
a(I205
I591
tp1129
a(I204
I592
tp1130
ag89
a(I202
I594
tp1131
a(I202
I595
tp1132
a(I201
I596
tp1133
a(I201
I597
tp1134
a(I200
I598
tp1135
a(I199
I599
tp1136
a(I198
I600
tp1137
a(I197
I601
tp1138
a(I196
I602
tp1139
a(I195
I603
tp1140
a(I194
I604
tp1141
a(I193
I605
tp1142
a(I192
I606
tp1143
a(I191
I607
tp1144
a(I189
I608
tp1145
a(I188
I609
tp1146
a(I187
I610
tp1147
a(I186
I611
tp1148
a(I185
I612
tp1149
a(I184
I613
tp1150
a(I183
I614
tp1151
a(I183
I615
tp1152
a(I183
I616
tp1153
a(I183
I617
tp1154
a(I183
I618
tp1155
a(I183
I619
tp1156
a(I183
I620
tp1157
a(I183
I621
tp1158
a(I183
I622
tp1159
a(I183
I623
tp1160
a(I183
I624
tp1161
a(I184
I625
tp1162
a(I184
I626
tp1163
a(I184
I627
tp1164
a(I185
I628
tp1165
a(I186
I629
tp1166
a(I186
I630
tp1167
a(I187
I631
tp1168
a(I188
I632
tp1169
asg8
(lp1170
(I305
I355
tp1171
a(I305
I356
tp1172
a(I305
I357
tp1173
a(I304
I358
tp1174
a(I304
I359
tp1175
a(I304
I360
tp1176
a(I303
I361
tp1177
a(I303
I362
tp1178
a(I302
I363
tp1179
a(I302
I364
tp1180
a(I312
I365
tp1181
a(I301
I366
tp1182
a(I311
I367
tp1183
a(I300
I368
tp1184
a(I310
I369
tp1185
a(I310
I370
tp1186
a(I309
I371
tp1187
a(I309
I372
tp1188
a(I308
I373
tp1189
a(I307
I374
tp1190
a(I307
I375
tp1191
a(I306
I376
tp1192
a(I306
I377
tp1193
a(I305
I378
tp1194
a(I305
I379
tp1195
a(I304
I380
tp1196
a(I304
I381
tp1197
a(I303
I382
tp1198
a(I303
I383
tp1199
a(I303
I384
tp1200
a(I303
I385
tp1201
a(I302
I386
tp1202
a(I302
I387
tp1203
a(I301
I388
tp1204
a(I301
I389
tp1205
a(I300
I390
tp1206
a(I300
I391
tp1207
a(I300
I392
tp1208
a(I300
I393
tp1209
a(I299
I394
tp1210
a(I299
I395
tp1211
a(I298
I396
tp1212
a(I298
I397
tp1213
a(I298
I398
tp1214
a(I298
I399
tp1215
a(I297
I400
tp1216
a(I297
I401
tp1217
a(I297
I402
tp1218
a(I297
I403
tp1219
a(I296
I404
tp1220
a(I296
I405
tp1221
a(I296
I406
tp1222
a(I296
I407
tp1223
a(I295
I408
tp1224
a(I295
I409
tp1225
a(I295
I410
tp1226
a(I295
I411
tp1227
a(I294
I412
tp1228
a(I294
I413
tp1229
a(I293
I414
tp1230
a(I293
I415
tp1231
a(I293
I416
tp1232
a(I293
I417
tp1233
a(I292
I418
tp1234
a(I292
I419
tp1235
a(I291
I420
tp1236
a(I291
I421
tp1237
a(I290
I422
tp1238
a(I290
I423
tp1239
a(I289
I424
tp1240
a(I289
I425
tp1241
a(I289
I426
tp1242
a(I289
I427
tp1243
a(I288
I428
tp1244
a(I288
I429
tp1245
a(I287
I430
tp1246
a(I287
I431
tp1247
a(I286
I432
tp1248
a(I286
I433
tp1249
a(I286
I434
tp1250
a(I286
I435
tp1251
a(I285
I436
tp1252
a(I285
I437
tp1253
a(I284
I438
tp1254
a(I284
I439
tp1255
a(I283
I440
tp1256
a(I283
I441
tp1257
a(I282
I442
tp1258
a(I282
I443
tp1259
a(I282
I444
tp1260
a(I282
I445
tp1261
a(I281
I446
tp1262
a(I281
I447
tp1263
a(I280
I448
tp1264
a(I280
I449
tp1265
a(I279
I450
tp1266
a(I279
I451
tp1267
a(I278
I452
tp1268
a(I278
I453
tp1269
a(I278
I454
tp1270
a(I278
I455
tp1271
a(I277
I456
tp1272
a(I277
I457
tp1273
a(I276
I458
tp1274
a(I276
I459
tp1275
a(I275
I460
tp1276
a(I275
I461
tp1277
a(I275
I462
tp1278
a(I275
I463
tp1279
a(I274
I464
tp1280
a(I274
I465
tp1281
a(I273
I466
tp1282
a(I273
I467
tp1283
a(I272
I468
tp1284
a(I272
I469
tp1285
a(I272
I470
tp1286
a(I272
I471
tp1287
a(I271
I472
tp1288
a(I271
I473
tp1289
a(I270
I474
tp1290
a(I270
I475
tp1291
a(I270
I476
tp1292
a(I270
I477
tp1293
a(I269
I478
tp1294
a(I269
I479
tp1295
a(I268
I480
tp1296
a(I268
I481
tp1297
a(I267
I482
tp1298
a(I267
I483
tp1299
a(I267
I484
tp1300
a(I267
I485
tp1301
a(I266
I486
tp1302
a(I266
I487
tp1303
a(I266
I488
tp1304
a(I266
I489
tp1305
a(I265
I490
tp1306
a(I265
I491
tp1307
a(I265
I492
tp1308
ag54
a(I265
I494
tp1309
a(I265
I495
tp1310
a(I265
I496
tp1311
a(I265
I497
tp1312
a(I265
I498
tp1313
a(I265
I499
tp1314
a(I265
I500
tp1315
a(I265
I501
tp1316
a(I264
I502
tp1317
a(I264
I503
tp1318
a(I264
I504
tp1319
a(I264
I505
tp1320
a(I263
I506
tp1321
a(I263
I507
tp1322
a(I263
I508
tp1323
a(I263
I509
tp1324
a(I263
I510
tp1325
a(I263
I511
tp1326
a(I263
I512
tp1327
a(I264
I513
tp1328
a(I264
I514
tp1329
a(I264
I515
tp1330
a(I264
I516
tp1331
a(I241
I517
tp1332
a(I241
I518
tp1333
a(I241
I519
tp1334
a(I240
I520
tp1335
a(I240
I521
tp1336
a(I239
I522
tp1337
a(I239
I523
tp1338
a(I239
I524
tp1339
a(I238
I525
tp1340
a(I238
I526
tp1341
a(I237
I527
tp1342
a(I237
I528
tp1343
a(I237
I529
tp1344
a(I236
I530
tp1345
a(I236
I531
tp1346
a(I235
I532
tp1347
a(I235
I533
tp1348
a(I235
I534
tp1349
ag14
a(I234
I536
tp1350
a(I233
I537
tp1351
a(I233
I538
tp1352
a(I233
I539
tp1353
a(I232
I540
tp1354
a(I232
I541
tp1355
a(I232
I542
tp1356
a(I231
I543
tp1357
a(I231
I544
tp1358
a(I230
I545
tp1359
a(I230
I546
tp1360
a(I230
I547
tp1361
a(I229
I548
tp1362
a(I229
I549
tp1363
a(I228
I550
tp1364
a(I228
I551
tp1365
a(I228
I552
tp1366
a(I217
I553
tp1367
a(I217
I554
tp1368
a(I217
I555
tp1369
a(I216
I556
tp1370
a(I216
I557
tp1371
a(I215
I558
tp1372
a(I215
I559
tp1373
a(I215
I560
tp1374
a(I215
I561
tp1375
a(I214
I562
tp1376
a(I214
I563
tp1377
a(I214
I564
tp1378
a(I215
I565
tp1379
a(I215
I566
tp1380
a(I215
I567
tp1381
a(I215
I568
tp1382
a(I215
I569
tp1383
a(I215
I570
tp1384
a(I215
I571
tp1385
a(I214
I572
tp1386
a(I214
I573
tp1387
a(I213
I574
tp1388
a(I213
I575
tp1389
a(I212
I576
tp1390
a(I212
I577
tp1391
a(I211
I578
tp1392
a(I211
I579
tp1393
a(I210
I580
tp1394
a(I210
I581
tp1395
a(I210
I582
tp1396
a(I210
I583
tp1397
a(I209
I584
tp1398
a(I208
I585
tp1399
a(I207
I586
tp1400
a(I207
I587
tp1401
a(I206
I588
tp1402
a(I206
I589
tp1403
a(I205
I590
tp1404
a(I205
I591
tp1405
a(I204
I592
tp1406
a(I203
I593
tp1407
a(I202
I594
tp1408
a(I202
I595
tp1409
a(I201
I596
tp1410
ag88
a(I200
I598
tp1411
a(I199
I599
tp1412
a(I198
I600
tp1413
a(I197
I601
tp1414
a(I196
I602
tp1415
a(I195
I603
tp1416
a(I194
I604
tp1417
a(I193
I605
tp1418
a(I192
I606
tp1419
a(I191
I607
tp1420
a(I189
I608
tp1421
a(I188
I609
tp1422
a(I187
I610
tp1423
a(I186
I611
tp1424
a(I185
I612
tp1425
a(I184
I613
tp1426
a(I183
I614
tp1427
a(I183
I615
tp1428
a(I183
I616
tp1429
a(I183
I617
tp1430
a(I183
I618
tp1431
a(I183
I619
tp1432
a(I183
I620
tp1433
a(I183
I621
tp1434
a(I183
I622
tp1435
a(I183
I623
tp1436
a(I183
I624
tp1437
a(I184
I625
tp1438
a(I184
I626
tp1439
a(I184
I627
tp1440
a(I185
I628
tp1441
a(I186
I629
tp1442
a(I186
I630
tp1443
a(I187
I631
tp1444
a(I188
I632
tp1445
asssS'corpse_brink'
p1446
(dp1447
g6
(lp1448
(I383
I186
tp1449
a(I384
I187
tp1450
a(I384
I188
tp1451
a(I384
I189
tp1452
a(I384
I190
tp1453
a(I383
I191
tp1454
a(I383
I192
tp1455
a(I383
I193
tp1456
a(I383
I194
tp1457
a(I378
I195
tp1458
a(I378
I196
tp1459
a(I378
I197
tp1460
a(I378
I198
tp1461
a(I378
I199
tp1462
a(I378
I200
tp1463
a(I378
I201
tp1464
a(I378
I202
tp1465
a(I378
I203
tp1466
a(I377
I204
tp1467
a(I377
I205
tp1468
a(I377
I206
tp1469
a(I377
I207
tp1470
a(I377
I208
tp1471
a(I377
I209
tp1472
a(I377
I210
tp1473
a(I377
I211
tp1474
a(I376
I212
tp1475
a(I376
I213
tp1476
a(I376
I214
tp1477
a(I376
I215
tp1478
a(I376
I216
tp1479
a(I376
I217
tp1480
a(I375
I218
tp1481
a(I375
I219
tp1482
a(I374
I220
tp1483
a(I374
I221
tp1484
a(I374
I222
tp1485
a(I374
I223
tp1486
a(I373
I224
tp1487
a(I373
I225
tp1488
a(I372
I226
tp1489
a(I372
I227
tp1490
a(I372
I228
tp1491
a(I372
I229
tp1492
a(I371
I230
tp1493
a(I371
I231
tp1494
a(I370
I232
tp1495
a(I370
I233
tp1496
a(I370
I234
tp1497
a(I370
I235
tp1498
a(I369
I236
tp1499
a(I369
I237
tp1500
a(I368
I238
tp1501
a(I368
I239
tp1502
a(I367
I240
tp1503
a(I367
I241
tp1504
a(I366
I242
tp1505
a(I366
I243
tp1506
a(I365
I244
tp1507
a(I365
I245
tp1508
a(I364
I246
tp1509
a(I364
I247
tp1510
a(I363
I248
tp1511
a(I363
I249
tp1512
a(I362
I250
tp1513
a(I362
I251
tp1514
a(I361
I252
tp1515
a(I361
I253
tp1516
a(I360
I254
tp1517
a(I360
I255
tp1518
a(I360
I256
tp1519
a(I360
I257
tp1520
a(I360
I258
tp1521
a(I360
I259
tp1522
a(I360
I260
tp1523
a(I360
I261
tp1524
a(I360
I262
tp1525
a(I360
I263
tp1526
a(I360
I264
tp1527
a(I360
I265
tp1528
a(I360
I266
tp1529
asg12
(lp1530
(I262
I175
tp1531
a(I262
I176
tp1532
a(I262
I177
tp1533
a(I262
I178
tp1534
a(I263
I179
tp1535
a(I263
I180
tp1536
a(I264
I181
tp1537
a(I264
I182
tp1538
a(I264
I183
tp1539
a(I264
I184
tp1540
a(I264
I185
tp1541
a(I264
I186
tp1542
a(I264
I187
tp1543
a(I264
I188
tp1544
a(I264
I189
tp1545
a(I263
I190
tp1546
a(I263
I191
tp1547
a(I263
I192
tp1548
a(I263
I193
tp1549
a(I263
I194
tp1550
a(I263
I195
tp1551
a(I263
I196
tp1552
a(I263
I197
tp1553
a(I263
I198
tp1554
a(I263
I199
tp1555
a(I263
I200
tp1556
a(I264
I201
tp1557
a(I264
I202
tp1558
a(I264
I203
tp1559
a(I264
I204
tp1560
a(I264
I205
tp1561
a(I264
I206
tp1562
a(I264
I207
tp1563
a(I264
I208
tp1564
a(I264
I209
tp1565
a(I264
I210
tp1566
a(I265
I211
tp1567
a(I265
I212
tp1568
a(I265
I213
tp1569
a(I265
I214
tp1570
a(I265
I215
tp1571
a(I265
I216
tp1572
a(I266
I217
tp1573
a(I266
I218
tp1574
a(I266
I219
tp1575
a(I266
I220
tp1576
a(I267
I221
tp1577
a(I267
I222
tp1578
a(I267
I223
tp1579
a(I267
I224
tp1580
a(I268
I225
tp1581
a(I268
I226
tp1582
a(I268
I227
tp1583
a(I268
I228
tp1584
a(I268
I229
tp1585
a(I268
I230
tp1586
a(I269
I231
tp1587
a(I269
I232
tp1588
a(I270
I233
tp1589
a(I270
I234
tp1590
a(I271
I235
tp1591
a(I271
I236
tp1592
a(I271
I237
tp1593
a(I271
I238
tp1594
a(I272
I239
tp1595
a(I272
I240
tp1596
a(I273
I241
tp1597
a(I273
I242
tp1598
a(I274
I243
tp1599
a(I274
I244
tp1600
a(I275
I245
tp1601
a(I275
I246
tp1602
a(I276
I247
tp1603
a(I276
I248
tp1604
a(I277
I249
tp1605
a(I277
I250
tp1606
a(I278
I251
tp1607
a(I278
I252
tp1608
a(I278
I253
tp1609
a(I278
I254
tp1610
a(I279
I255
tp1611
a(I279
I256
tp1612
a(I279
I257
tp1613
a(I279
I258
tp1614
a(I279
I259
tp1615
a(I279
I260
tp1616
a(I279
I261
tp1617
a(I279
I262
tp1618
a(I279
I263
tp1619
a(I279
I264
tp1620
a(I279
I265
tp1621
a(I279
I266
tp1622
assS'arm_brink'
p1623
(dp1624
g6
(dp1625
g10
(lp1626
(I402
I157
tp1627
a(I402
I158
tp1628
a(I403
I159
tp1629
a(I403
I160
tp1630
a(I403
I161
tp1631
a(I403
I162
tp1632
a(I404
I163
tp1633
a(I404
I164
tp1634
a(I405
I165
tp1635
a(I405
I166
tp1636
a(I405
I167
tp1637
a(I405
I168
tp1638
a(I406
I169
tp1639
a(I406
I170
tp1640
a(I406
I171
tp1641
a(I406
I172
tp1642
a(I406
I173
tp1643
a(I406
I174
tp1644
a(I407
I175
tp1645
a(I407
I176
tp1646
a(I407
I177
tp1647
a(I407
I178
tp1648
a(I407
I179
tp1649
a(I407
I180
tp1650
a(I408
I181
tp1651
a(I408
I182
tp1652
a(I408
I183
tp1653
a(I408
I184
tp1654
a(I408
I185
tp1655
a(I408
I186
tp1656
a(I408
I187
tp1657
a(I408
I188
tp1658
a(I409
I189
tp1659
a(I409
I190
tp1660
a(I409
I191
tp1661
a(I409
I192
tp1662
a(I410
I193
tp1663
a(I410
I194
tp1664
a(I410
I195
tp1665
a(I410
I196
tp1666
a(I411
I197
tp1667
a(I411
I198
tp1668
a(I411
I199
tp1669
a(I411
I200
tp1670
a(I412
I201
tp1671
a(I412
I202
tp1672
a(I413
I203
tp1673
a(I413
I204
tp1674
a(I413
I205
tp1675
a(I413
I206
tp1676
a(I414
I207
tp1677
a(I414
I208
tp1678
a(I415
I209
tp1679
a(I415
I210
tp1680
a(I415
I211
tp1681
a(I415
I212
tp1682
a(I416
I213
tp1683
a(I416
I214
tp1684
a(I416
I215
tp1685
a(I416
I216
tp1686
a(I417
I217
tp1687
a(I417
I218
tp1688
a(I418
I219
tp1689
a(I418
I220
tp1690
a(I418
I221
tp1691
ag28
a(I419
I223
tp1692
a(I419
I224
tp1693
a(I420
I225
tp1694
a(I420
I226
tp1695
a(I420
I227
tp1696
a(I429
I228
tp1697
a(I429
I229
tp1698
a(I430
I230
tp1699
a(I430
I231
tp1700
a(I430
I232
tp1701
a(I431
I233
tp1702
a(I431
I234
tp1703
a(I432
I235
tp1704
a(I432
I236
tp1705
a(I432
I237
tp1706
a(I433
I238
tp1707
a(I433
I239
tp1708
a(I434
I240
tp1709
a(I434
I241
tp1710
a(I434
I242
tp1711
a(I435
I243
tp1712
a(I435
I244
tp1713
a(I436
I245
tp1714
a(I436
I246
tp1715
a(I436
I247
tp1716
a(I437
I248
tp1717
a(I437
I249
tp1718
a(I438
I250
tp1719
a(I438
I251
tp1720
a(I438
I252
tp1721
a(I439
I253
tp1722
a(I439
I254
tp1723
a(I440
I255
tp1724
a(I440
I256
tp1725
a(I440
I257
tp1726
a(I441
I258
tp1727
a(I441
I259
tp1728
a(I442
I260
tp1729
a(I442
I261
tp1730
a(I442
I262
tp1731
a(I443
I263
tp1732
a(I443
I264
tp1733
a(I444
I265
tp1734
a(I444
I266
tp1735
a(I444
I267
tp1736
a(I445
I268
tp1737
a(I445
I269
tp1738
a(I446
I270
tp1739
a(I446
I271
tp1740
a(I446
I272
tp1741
a(I447
I273
tp1742
a(I447
I274
tp1743
a(I448
I275
tp1744
a(I448
I276
tp1745
a(I448
I277
tp1746
a(I449
I278
tp1747
a(I449
I279
tp1748
a(I450
I280
tp1749
a(I450
I281
tp1750
a(I450
I282
tp1751
a(I451
I283
tp1752
a(I451
I284
tp1753
a(I452
I285
tp1754
a(I452
I286
tp1755
a(I452
I287
tp1756
a(I453
I288
tp1757
a(I453
I289
tp1758
a(I454
I290
tp1759
a(I454
I291
tp1760
a(I454
I292
tp1761
a(I455
I293
tp1762
a(I455
I294
tp1763
a(I456
I295
tp1764
a(I456
I296
tp1765
a(I456
I297
tp1766
a(I457
I298
tp1767
a(I457
I299
tp1768
a(I458
I300
tp1769
a(I458
I301
tp1770
a(I458
I302
tp1771
a(I459
I303
tp1772
a(I459
I304
tp1773
a(I460
I305
tp1774
a(I460
I306
tp1775
a(I460
I307
tp1776
a(I461
I308
tp1777
a(I461
I309
tp1778
a(I462
I310
tp1779
a(I462
I311
tp1780
a(I462
I312
tp1781
a(I463
I313
tp1782
a(I463
I314
tp1783
a(I464
I315
tp1784
a(I464
I316
tp1785
a(I464
I317
tp1786
a(I465
I318
tp1787
a(I465
I319
tp1788
a(I466
I320
tp1789
ag40
a(I466
I322
tp1790
a(I467
I323
tp1791
a(I467
I324
tp1792
a(I468
I325
tp1793
a(I468
I326
tp1794
a(I468
I327
tp1795
a(I469
I328
tp1796
a(I469
I329
tp1797
a(I470
I330
tp1798
a(I470
I331
tp1799
a(I470
I332
tp1800
a(I471
I333
tp1801
a(I471
I334
tp1802
a(I472
I335
tp1803
a(I472
I336
tp1804
a(I466
I337
tp1805
a(I466
I338
tp1806
a(I467
I339
tp1807
a(I467
I340
tp1808
a(I468
I341
tp1809
a(I469
I342
tp1810
a(I470
I343
tp1811
a(I471
I344
tp1812
a(I472
I345
tp1813
a(I473
I346
tp1814
a(I474
I347
tp1815
a(I475
I348
tp1816
a(I476
I349
tp1817
a(I477
I350
tp1818
a(I479
I351
tp1819
a(I480
I352
tp1820
a(I481
I353
tp1821
a(I481
I354
tp1822
asg8
(lp1823
(I383
I186
tp1824
a(I384
I187
tp1825
a(I384
I188
tp1826
a(I384
I189
tp1827
a(I384
I190
tp1828
a(I384
I191
tp1829
a(I384
I192
tp1830
a(I384
I193
tp1831
a(I384
I194
tp1832
a(I384
I195
tp1833
a(I384
I196
tp1834
a(I384
I197
tp1835
a(I384
I198
tp1836
a(I384
I199
tp1837
a(I384
I200
tp1838
a(I385
I201
tp1839
a(I385
I202
tp1840
a(I385
I203
tp1841
a(I385
I204
tp1842
a(I385
I205
tp1843
a(I385
I206
tp1844
a(I386
I207
tp1845
a(I386
I208
tp1846
a(I387
I209
tp1847
a(I387
I210
tp1848
a(I387
I211
tp1849
a(I387
I212
tp1850
a(I388
I213
tp1851
a(I388
I214
tp1852
a(I388
I215
tp1853
a(I388
I216
tp1854
a(I389
I217
tp1855
a(I389
I218
tp1856
a(I390
I219
tp1857
a(I390
I220
tp1858
a(I390
I221
tp1859
a(I390
I222
tp1860
a(I390
I223
tp1861
a(I390
I224
tp1862
a(I391
I225
tp1863
a(I391
I226
tp1864
a(I391
I227
tp1865
a(I404
I228
tp1866
a(I404
I229
tp1867
a(I405
I230
tp1868
a(I405
I231
tp1869
a(I406
I232
tp1870
a(I407
I233
tp1871
a(I407
I234
tp1872
a(I408
I235
tp1873
a(I408
I236
tp1874
a(I409
I237
tp1875
a(I410
I238
tp1876
a(I410
I239
tp1877
a(I411
I240
tp1878
a(I411
I241
tp1879
ag27
a(I413
I243
tp1880
a(I413
I244
tp1881
a(I414
I245
tp1882
a(I414
I246
tp1883
a(I415
I247
tp1884
a(I416
I248
tp1885
a(I416
I249
tp1886
a(I417
I250
tp1887
a(I417
I251
tp1888
a(I418
I252
tp1889
a(I419
I253
tp1890
a(I419
I254
tp1891
a(I420
I255
tp1892
a(I420
I256
tp1893
a(I421
I257
tp1894
a(I422
I258
tp1895
a(I422
I259
tp1896
a(I423
I260
tp1897
a(I423
I261
tp1898
a(I424
I262
tp1899
a(I434
I263
tp1900
a(I435
I264
tp1901
a(I435
I265
tp1902
a(I435
I266
tp1903
a(I436
I267
tp1904
a(I436
I268
tp1905
a(I437
I269
tp1906
a(I437
I270
tp1907
a(I437
I271
tp1908
a(I437
I272
tp1909
a(I438
I273
tp1910
a(I438
I274
tp1911
a(I438
I275
tp1912
a(I438
I276
tp1913
a(I439
I277
tp1914
a(I439
I278
tp1915
a(I439
I279
tp1916
a(I439
I280
tp1917
a(I440
I281
tp1918
a(I440
I282
tp1919
a(I440
I283
tp1920
a(I440
I284
tp1921
a(I441
I285
tp1922
a(I441
I286
tp1923
a(I442
I287
tp1924
a(I442
I288
tp1925
a(I443
I289
tp1926
a(I443
I290
tp1927
a(I443
I291
tp1928
a(I443
I292
tp1929
a(I444
I293
tp1930
a(I444
I294
tp1931
a(I445
I295
tp1932
a(I445
I296
tp1933
a(I446
I297
tp1934
a(I446
I298
tp1935
a(I446
I299
tp1936
a(I446
I300
tp1937
a(I447
I301
tp1938
a(I447
I302
tp1939
a(I448
I303
tp1940
a(I448
I304
tp1941
a(I449
I305
tp1942
a(I449
I306
tp1943
a(I450
I307
tp1944
a(I450
I308
tp1945
a(I451
I309
tp1946
a(I451
I310
tp1947
a(I452
I311
tp1948
a(I452
I312
tp1949
a(I452
I313
tp1950
a(I452
I314
tp1951
a(I453
I315
tp1952
a(I453
I316
tp1953
a(I454
I317
tp1954
a(I454
I318
tp1955
a(I455
I319
tp1956
a(I455
I320
tp1957
a(I456
I321
tp1958
a(I456
I322
tp1959
a(I457
I323
tp1960
a(I457
I324
tp1961
a(I458
I325
tp1962
ag39
a(I459
I327
tp1963
a(I459
I328
tp1964
a(I460
I329
tp1965
a(I460
I330
tp1966
a(I461
I331
tp1967
a(I462
I332
tp1968
a(I463
I333
tp1969
a(I463
I334
tp1970
a(I464
I335
tp1971
a(I465
I336
tp1972
a(I466
I337
tp1973
a(I466
I338
tp1974
a(I467
I339
tp1975
a(I467
I340
tp1976
a(I468
I341
tp1977
a(I469
I342
tp1978
a(I470
I343
tp1979
a(I471
I344
tp1980
a(I472
I345
tp1981
a(I473
I346
tp1982
a(I474
I347
tp1983
a(I475
I348
tp1984
a(I476
I349
tp1985
a(I477
I350
tp1986
a(I479
I351
tp1987
a(I480
I352
tp1988
a(I481
I353
tp1989
a(I481
I354
tp1990
assg12
(dp1991
g10
(lp1992
(I243
I151
tp1993
a(I243
I152
tp1994
a(I243
I153
tp1995
a(I242
I154
tp1996
a(I242
I155
tp1997
a(I241
I156
tp1998
a(I241
I157
tp1999
a(I241
I158
tp2000
a(I241
I159
tp2001
a(I240
I160
tp2002
a(I240
I161
tp2003
a(I240
I162
tp2004
a(I240
I163
tp2005
a(I239
I164
tp2006
a(I239
I165
tp2007
a(I239
I166
tp2008
a(I239
I167
tp2009
a(I238
I168
tp2010
a(I238
I169
tp2011
a(I238
I170
tp2012
a(I238
I171
tp2013
a(I238
I172
tp2014
a(I238
I173
tp2015
a(I238
I174
tp2016
a(I238
I175
tp2017
a(I237
I176
tp2018
a(I237
I177
tp2019
a(I237
I178
tp2020
a(I237
I179
tp2021
a(I237
I180
tp2022
a(I237
I181
tp2023
a(I236
I182
tp2024
a(I236
I183
tp2025
a(I236
I184
tp2026
a(I236
I185
tp2027
a(I235
I186
tp2028
a(I235
I187
tp2029
a(I234
I188
tp2030
a(I234
I189
tp2031
a(I234
I190
tp2032
a(I234
I191
tp2033
a(I233
I192
tp2034
a(I233
I193
tp2035
a(I232
I194
tp2036
a(I232
I195
tp2037
a(I231
I196
tp2038
a(I231
I197
tp2039
a(I230
I198
tp2040
a(I230
I199
tp2041
a(I230
I200
tp2042
a(I230
I201
tp2043
a(I229
I202
tp2044
a(I229
I203
tp2045
a(I228
I204
tp2046
a(I228
I205
tp2047
a(I228
I206
tp2048
a(I228
I207
tp2049
a(I227
I208
tp2050
a(I227
I209
tp2051
a(I227
I210
tp2052
a(I227
I211
tp2053
a(I226
I212
tp2054
a(I226
I213
tp2055
a(I225
I214
tp2056
a(I225
I215
tp2057
ag31
a(I225
I217
tp2058
a(I224
I218
tp2059
a(I224
I219
tp2060
a(I223
I220
tp2061
a(I223
I221
tp2062
a(I222
I222
tp2063
a(I222
I223
tp2064
a(I221
I224
tp2065
a(I221
I225
tp2066
a(I220
I226
tp2067
a(I220
I227
tp2068
a(I219
I228
tp2069
a(I219
I229
tp2070
a(I219
I230
tp2071
a(I219
I231
tp2072
a(I218
I232
tp2073
a(I218
I233
tp2074
a(I217
I234
tp2075
a(I217
I235
tp2076
a(I217
I236
tp2077
a(I217
I237
tp2078
a(I216
I238
tp2079
a(I216
I239
tp2080
a(I215
I240
tp2081
a(I215
I241
tp2082
a(I214
I242
tp2083
a(I214
I243
tp2084
a(I213
I244
tp2085
a(I213
I245
tp2086
a(I213
I246
tp2087
a(I213
I247
tp2088
a(I212
I248
tp2089
a(I212
I249
tp2090
a(I211
I250
tp2091
a(I211
I251
tp2092
a(I210
I252
tp2093
a(I210
I253
tp2094
a(I209
I254
tp2095
a(I209
I255
tp2096
a(I208
I256
tp2097
a(I208
I257
tp2098
a(I207
I258
tp2099
a(I207
I259
tp2100
a(I206
I260
tp2101
a(I206
I261
tp2102
a(I206
I262
tp2103
a(I206
I263
tp2104
a(I205
I264
tp2105
a(I205
I265
tp2106
a(I205
I266
tp2107
a(I205
I267
tp2108
a(I204
I268
tp2109
a(I204
I269
tp2110
a(I203
I270
tp2111
a(I203
I271
tp2112
a(I203
I272
tp2113
a(I203
I273
tp2114
a(I202
I274
tp2115
a(I202
I275
tp2116
a(I201
I276
tp2117
a(I201
I277
tp2118
a(I200
I278
tp2119
a(I200
I279
tp2120
a(I200
I280
tp2121
a(I200
I281
tp2122
a(I199
I282
tp2123
a(I199
I283
tp2124
a(I198
I284
tp2125
a(I198
I285
tp2126
a(I197
I286
tp2127
a(I197
I287
tp2128
a(I196
I288
tp2129
a(I196
I289
tp2130
a(I195
I290
tp2131
a(I195
I291
tp2132
a(I195
I292
tp2133
a(I195
I293
tp2134
a(I194
I294
tp2135
a(I194
I295
tp2136
a(I193
I296
tp2137
a(I193
I297
tp2138
a(I192
I298
tp2139
a(I192
I299
tp2140
a(I191
I300
tp2141
a(I191
I301
tp2142
a(I190
I302
tp2143
a(I190
I303
tp2144
a(I190
I304
tp2145
a(I190
I305
tp2146
a(I189
I306
tp2147
a(I189
I307
tp2148
a(I189
I308
tp2149
a(I189
I309
tp2150
a(I188
I310
tp2151
a(I188
I311
tp2152
a(I188
I312
tp2153
ag43
a(I187
I314
tp2154
a(I187
I315
tp2155
a(I187
I316
tp2156
a(I187
I317
tp2157
a(I187
I318
tp2158
a(I187
I319
tp2159
a(I186
I320
tp2160
a(I186
I321
tp2161
a(I186
I322
tp2162
a(I186
I323
tp2163
a(I186
I324
tp2164
a(I186
I325
tp2165
a(I186
I326
tp2166
a(I186
I327
tp2167
a(I185
I328
tp2168
a(I185
I329
tp2169
a(I185
I330
tp2170
a(I185
I331
tp2171
a(I185
I332
tp2172
a(I185
I333
tp2173
a(I184
I334
tp2174
a(I184
I335
tp2175
a(I184
I336
tp2176
a(I184
I337
tp2177
a(I183
I338
tp2178
a(I183
I339
tp2179
a(I183
I340
tp2180
a(I183
I341
tp2181
a(I182
I342
tp2182
a(I182
I343
tp2183
a(I182
I344
tp2184
a(I183
I345
tp2185
a(I183
I346
tp2186
asg8
(lp2187
(I262
I175
tp2188
a(I262
I176
tp2189
a(I262
I177
tp2190
a(I262
I178
tp2191
a(I263
I179
tp2192
a(I263
I180
tp2193
a(I264
I181
tp2194
a(I264
I182
tp2195
a(I264
I183
tp2196
a(I264
I184
tp2197
a(I264
I185
tp2198
a(I264
I186
tp2199
a(I264
I187
tp2200
a(I264
I188
tp2201
a(I264
I189
tp2202
a(I263
I190
tp2203
a(I263
I191
tp2204
a(I263
I192
tp2205
a(I263
I193
tp2206
a(I263
I194
tp2207
a(I263
I195
tp2208
a(I263
I196
tp2209
a(I263
I197
tp2210
a(I262
I198
tp2211
a(I262
I199
tp2212
a(I254
I200
tp2213
a(I253
I201
tp2214
a(I252
I202
tp2215
a(I252
I203
tp2216
a(I251
I204
tp2217
a(I251
I205
tp2218
a(I250
I206
tp2219
a(I249
I207
tp2220
a(I248
I208
tp2221
a(I248
I209
tp2222
a(I247
I210
tp2223
a(I247
I211
tp2224
a(I247
I212
tp2225
a(I247
I213
tp2226
a(I246
I214
tp2227
a(I246
I215
tp2228
a(I245
I216
tp2229
a(I245
I217
tp2230
a(I244
I218
tp2231
a(I244
I219
tp2232
a(I243
I220
tp2233
a(I243
I221
tp2234
a(I243
I222
tp2235
a(I243
I223
tp2236
a(I242
I224
tp2237
a(I242
I225
tp2238
a(I242
I226
tp2239
a(I242
I227
tp2240
a(I242
I228
tp2241
a(I242
I229
tp2242
a(I242
I230
tp2243
a(I242
I231
tp2244
ag30
a(I242
I233
tp2245
a(I242
I234
tp2246
a(I242
I235
tp2247
a(I242
I236
tp2248
a(I242
I237
tp2249
a(I242
I238
tp2250
a(I242
I239
tp2251
a(I241
I240
tp2252
a(I241
I241
tp2253
a(I241
I242
tp2254
a(I241
I243
tp2255
a(I240
I244
tp2256
a(I240
I245
tp2257
a(I239
I246
tp2258
a(I239
I247
tp2259
a(I238
I248
tp2260
a(I238
I249
tp2261
a(I237
I250
tp2262
a(I237
I251
tp2263
a(I236
I252
tp2264
a(I236
I253
tp2265
a(I235
I254
tp2266
a(I235
I255
tp2267
a(I234
I256
tp2268
a(I234
I257
tp2269
a(I233
I258
tp2270
a(I233
I259
tp2271
a(I232
I260
tp2272
a(I232
I261
tp2273
a(I231
I262
tp2274
a(I231
I263
tp2275
a(I230
I264
tp2276
a(I230
I265
tp2277
a(I229
I266
tp2278
a(I228
I267
tp2279
a(I227
I268
tp2280
a(I227
I269
tp2281
a(I226
I270
tp2282
a(I225
I271
tp2283
a(I224
I272
tp2284
a(I224
I273
tp2285
a(I223
I274
tp2286
a(I222
I275
tp2287
a(I221
I276
tp2288
a(I221
I277
tp2289
a(I220
I278
tp2290
a(I220
I279
tp2291
a(I219
I280
tp2292
a(I218
I281
tp2293
a(I217
I282
tp2294
a(I217
I283
tp2295
a(I216
I284
tp2296
a(I215
I285
tp2297
a(I214
I286
tp2298
a(I214
I287
tp2299
a(I213
I288
tp2300
a(I213
I289
tp2301
a(I212
I290
tp2302
a(I211
I291
tp2303
a(I210
I292
tp2304
a(I210
I293
tp2305
a(I209
I294
tp2306
a(I209
I295
tp2307
a(I208
I296
tp2308
a(I207
I297
tp2309
a(I206
I298
tp2310
a(I206
I299
tp2311
a(I205
I300
tp2312
a(I205
I301
tp2313
a(I204
I302
tp2314
a(I204
I303
tp2315
a(I203
I304
tp2316
a(I203
I305
tp2317
a(I202
I306
tp2318
a(I202
I307
tp2319
a(I202
I308
tp2320
a(I202
I309
tp2321
a(I202
I310
tp2322
a(I203
I311
tp2323
a(I203
I312
tp2324
a(I203
I313
tp2325
a(I203
I314
tp2326
a(I204
I315
tp2327
a(I204
I316
tp2328
ag42
a(I204
I318
tp2329
a(I205
I319
tp2330
a(I205
I320
tp2331
a(I206
I321
tp2332
a(I206
I322
tp2333
a(I206
I323
tp2334
a(I206
I324
tp2335
a(I207
I325
tp2336
a(I207
I326
tp2337
a(I207
I327
tp2338
a(I207
I328
tp2339
a(I208
I329
tp2340
a(I208
I330
tp2341
a(I208
I331
tp2342
a(I208
I332
tp2343
a(I208
I333
tp2344
a(I207
I334
tp2345
a(I207
I335
tp2346
a(I206
I336
tp2347
a(I206
I337
tp2348
a(I206
I338
tp2349
a(I207
I339
tp2350
a(I207
I340
tp2351
a(I207
I341
tp2352
a(I207
I342
tp2353
a(I207
I343
tp2354
a(I207
I344
tp2355
a(I207
I345
tp2356
a(I206
I346
tp2357
asssS'sholder_brink'
p2358
(dp2359
g6
(lp2360
(I353
I120
tp2361
a(I354
I121
tp2362
a(I355
I121
tp2363
a(I356
I121
tp2364
a(I357
I121
tp2365
a(I358
I122
tp2366
a(I359
I123
tp2367
a(I360
I123
tp2368
a(I361
I123
tp2369
a(I362
I123
tp2370
a(I363
I124
tp2371
a(I364
I125
tp2372
a(I365
I125
tp2373
a(I366
I125
tp2374
a(I367
I125
tp2375
a(I368
I126
tp2376
a(I369
I127
tp2377
a(I370
I127
tp2378
a(I371
I127
tp2379
a(I372
I127
tp2380
a(I373
I127
tp2381
a(I374
I128
tp2382
a(I375
I129
tp2383
ag94
a(I377
I129
tp2384
a(I378
I129
tp2385
a(I379
I129
tp2386
a(I380
I129
tp2387
a(I381
I129
tp2388
a(I382
I129
tp2389
a(I383
I129
tp2390
a(I384
I130
tp2391
a(I385
I131
tp2392
a(I386
I131
tp2393
a(I387
I131
tp2394
a(I388
I132
tp2395
a(I389
I133
tp2396
a(I390
I133
tp2397
a(I391
I134
tp2398
a(I392
I135
tp2399
a(I393
I137
tp2400
a(I394
I138
tp2401
a(I395
I139
tp2402
a(I396
I141
tp2403
a(I397
I143
tp2404
a(I398
I147
tp2405
a(I399
I151
tp2406
a(I400
I153
tp2407
asg12
(lp2408
(I242
I155
tp2409
a(I243
I153
tp2410
a(I244
I149
tp2411
a(I245
I145
tp2412
a(I246
I143
tp2413
a(I247
I141
tp2414
a(I248
I139
tp2415
a(I249
I137
tp2416
a(I250
I136
tp2417
a(I251
I135
tp2418
a(I252
I134
tp2419
a(I253
I133
tp2420
a(I254
I132
tp2421
a(I255
I131
tp2422
a(I256
I131
tp2423
a(I257
I130
tp2424
a(I258
I129
tp2425
a(I259
I129
tp2426
a(I260
I129
tp2427
a(I261
I128
tp2428
a(I262
I127
tp2429
a(I263
I127
tp2430
a(I264
I127
tp2431
a(I265
I127
tp2432
a(I266
I127
tp2433
ag95
a(I268
I127
tp2434
a(I269
I127
tp2435
a(I270
I127
tp2436
a(I271
I127
tp2437
a(I272
I127
tp2438
a(I273
I127
tp2439
a(I274
I127
tp2440
a(I275
I126
tp2441
a(I276
I125
tp2442
a(I277
I125
tp2443
a(I278
I125
tp2444
a(I279
I125
tp2445
a(I280
I125
tp2446
a(I281
I124
tp2447
a(I282
I123
tp2448
a(I283
I123
tp2449
a(I284
I123
tp2450
a(I285
I123
tp2451
a(I286
I122
tp2452
a(I287
I121
tp2453
a(I288
I121
tp2454
a(I289
I121
tp2455
a(I290
I120
tp2456
a(I291
I119
tp2457
a(I292
I119
tp2458
assS'forhead_brink'
p2459
(dp2460
g6
(lp2461
(I349
I24
tp2462
a(I350
I25
tp2463
a(I351
I26
tp2464
a(I352
I27
tp2465
a(I352
I28
tp2466
a(I353
I29
tp2467
a(I353
I30
tp2468
a(I354
I31
tp2469
a(I354
I32
tp2470
a(I355
I33
tp2471
a(I355
I34
tp2472
a(I356
I35
tp2473
a(I356
I36
tp2474
a(I357
I37
tp2475
a(I357
I38
tp2476
a(I358
I39
tp2477
a(I358
I40
tp2478
a(I359
I41
tp2479
a(I359
I42
tp2480
a(I359
I43
tp2481
a(I359
I44
tp2482
a(I360
I45
tp2483
a(I360
I46
tp2484
a(I360
I47
tp2485
a(I360
I48
tp2486
a(I361
I49
tp2487
a(I361
I50
tp2488
asg12
(lp2489
(I294
I24
tp2490
a(I294
I25
tp2491
a(I293
I26
tp2492
a(I292
I27
tp2493
a(I291
I28
tp2494
a(I291
I29
tp2495
a(I290
I30
tp2496
a(I290
I31
tp2497
a(I289
I32
tp2498
assS'head_top_brink'
p2499
(dp2500
g6
(lp2501
(I321
I13
tp2502
a(I322
I13
tp2503
a(I323
I13
tp2504
a(I324
I13
tp2505
a(I325
I13
tp2506
a(I326
I13
tp2507
a(I327
I13
tp2508
a(I328
I14
tp2509
a(I329
I14
tp2510
a(I330
I14
tp2511
a(I331
I14
tp2512
a(I332
I15
tp2513
a(I333
I15
tp2514
a(I334
I15
tp2515
a(I335
I15
tp2516
a(I336
I16
tp2517
a(I337
I17
tp2518
a(I338
I17
tp2519
a(I339
I18
tp2520
a(I340
I19
tp2521
a(I341
I19
tp2522
a(I342
I20
tp2523
a(I343
I21
tp2524
a(I344
I21
tp2525
a(I345
I22
tp2526
a(I346
I23
tp2527
a(I347
I23
tp2528
asg12
(lp2529
(I293
I26
tp2530
a(I294
I25
tp2531
a(I295
I23
tp2532
a(I296
I23
tp2533
a(I297
I22
tp2534
a(I298
I21
tp2535
a(I299
I20
tp2536
a(I300
I19
tp2537
a(I301
I19
tp2538
a(I302
I19
tp2539
a(I303
I18
tp2540
a(I304
I18
tp2541
a(I305
I18
tp2542
a(I306
I18
tp2543
a(I307
I18
tp2544
a(I308
I19
tp2545
a(I309
I19
tp2546
a(I310
I19
tp2547
a(I311
I18
tp2548
a(I312
I17
tp2549
a(I313
I17
tp2550
a(I314
I16
tp2551
a(I315
I15
tp2552
a(I316
I15
tp2553
a(I317
I14
tp2554
a(I318
I14
tp2555
a(I319
I14
tp2556
a(I320
I14
tp2557
assS'neck_brink'
p2558
(dp2559
g6
(lp2560
(I342
I102
tp2561
a(I343
I103
tp2562
a(I344
I105
tp2563
a(I345
I106
tp2564
a(I346
I108
tp2565
a(I347
I109
tp2566
a(I348
I111
tp2567
a(I349
I112
tp2568
a(I350
I114
tp2569
a(I351
I115
tp2570
a(I352
I117
tp2571
asg12
(lp2572
(I293
I119
tp2573
a(I294
I117
tp2574
a(I295
I115
tp2575
a(I296
I113
tp2576
a(I297
I111
tp2577
a(I298
I109
tp2578
a(I299
I107
tp2579
a(I300
I105
tp2580
a(I301
I103
tp2581
assS'loin_brink'
p2582
(dp2583
g6
(lp2584
(I361
I267
tp2585
a(I361
I268
tp2586
a(I361
I269
tp2587
a(I362
I270
tp2588
a(I362
I271
tp2589
a(I363
I272
tp2590
a(I363
I273
tp2591
a(I364
I274
tp2592
a(I364
I275
tp2593
a(I364
I276
tp2594
a(I365
I277
tp2595
a(I365
I278
tp2596
a(I366
I279
tp2597
a(I366
I280
tp2598
a(I367
I281
tp2599
a(I367
I282
tp2600
a(I367
I283
tp2601
a(I368
I284
tp2602
a(I368
I285
tp2603
a(I369
I286
tp2604
a(I369
I287
tp2605
a(I370
I288
tp2606
a(I370
I289
tp2607
a(I370
I290
tp2608
a(I371
I291
tp2609
a(I371
I292
tp2610
a(I372
I293
tp2611
a(I372
I294
tp2612
a(I373
I295
tp2613
a(I373
I296
tp2614
a(I374
I297
tp2615
a(I374
I298
tp2616
a(I374
I299
tp2617
a(I375
I300
tp2618
a(I375
I301
tp2619
a(I376
I302
tp2620
a(I376
I303
tp2621
a(I377
I304
tp2622
a(I377
I305
tp2623
a(I377
I306
tp2624
a(I378
I307
tp2625
a(I378
I308
tp2626
a(I379
I309
tp2627
a(I379
I310
tp2628
a(I380
I311
tp2629
a(I380
I312
tp2630
a(I380
I313
tp2631
a(I381
I314
tp2632
a(I381
I315
tp2633
a(I382
I316
tp2634
a(I382
I317
tp2635
a(I383
I318
tp2636
a(I383
I319
tp2637
a(I383
I320
tp2638
a(I384
I321
tp2639
a(I384
I322
tp2640
a(I385
I323
tp2641
a(I385
I324
tp2642
a(I386
I325
tp2643
a(I386
I326
tp2644
asg12
(lp2645
(I279
I267
tp2646
a(I279
I268
tp2647
a(I279
I269
tp2648
a(I278
I270
tp2649
a(I278
I271
tp2650
a(I277
I272
tp2651
a(I277
I273
tp2652
a(I276
I274
tp2653
a(I276
I275
tp2654
a(I275
I276
tp2655
a(I275
I277
tp2656
a(I275
I278
tp2657
a(I274
I279
tp2658
a(I274
I280
tp2659
a(I273
I281
tp2660
a(I273
I282
tp2661
a(I272
I283
tp2662
a(I272
I284
tp2663
a(I271
I285
tp2664
a(I271
I286
tp2665
a(I270
I287
tp2666
a(I270
I288
tp2667
a(I270
I289
tp2668
a(I269
I290
tp2669
a(I269
I291
tp2670
a(I268
I292
tp2671
a(I268
I293
tp2672
a(I267
I294
tp2673
a(I267
I295
tp2674
a(I266
I296
tp2675
a(I266
I297
tp2676
a(I266
I298
tp2677
a(I265
I299
tp2678
a(I265
I300
tp2679
a(I264
I301
tp2680
a(I264
I302
tp2681
a(I263
I303
tp2682
a(I263
I304
tp2683
a(I262
I305
tp2684
a(I262
I306
tp2685
a(I261
I307
tp2686
a(I261
I308
tp2687
a(I261
I309
tp2688
a(I260
I310
tp2689
a(I260
I311
tp2690
a(I259
I312
tp2691
a(I259
I313
tp2692
a(I258
I314
tp2693
a(I258
I315
tp2694
a(I257
I316
tp2695
a(I257
I317
tp2696
a(I257
I318
tp2697
a(I256
I319
tp2698
a(I256
I320
tp2699
a(I255
I321
tp2700
a(I255
I322
tp2701
a(I254
I323
tp2702
a(I254
I324
tp2703
a(I253
I325
tp2704
a(I253
I326
tp2705
asssb.